; Function Attrs: nounwind uwtable
define hidden range(i32 -1, 2) i32 @ssl3_send_change_cipher_spec(ptr noundef %0, i32 noundef %1, i32 noundef %2) local_unnamed_addr #0 {
  %4 = getelementptr inbounds nuw i8, ptr %0, i64 52
  %5 = load i32, ptr %4, align 4, !tbaa !42
  %6 = icmp eq i32 %5, %1
  br i1 %6, label %8, label %._crit_edge

._crit_edge:                                      ; preds = %3
  %.phi.trans.insert = getelementptr inbounds nuw i8, ptr %0, i64 76
  %.pre = load i32, ptr %.phi.trans.insert, align 4, !tbaa !37
  %.phi.trans.insert7 = getelementptr inbounds nuw i8, ptr %0, i64 72
  %.pre8 = load i32, ptr %.phi.trans.insert7, align 8, !tbaa !38
  %7 = sext i32 %.pre to i64
  br label %15

8:                                                ; preds = %3
  %9 = getelementptr inbounds nuw i8, ptr %0, i64 56
  %10 = load ptr, ptr %9, align 8, !tbaa !6
  %11 = getelementptr inbounds nuw i8, ptr %10, i64 8
  %12 = load ptr, ptr %11, align 8, !tbaa !35
  store i8 1, ptr %12, align 1, !tbaa !78
  %13 = getelementptr inbounds nuw i8, ptr %0, i64 72
  store i32 1, ptr %13, align 8, !tbaa !38
  %14 = getelementptr inbounds nuw i8, ptr %0, i64 76
  store i32 0, ptr %14, align 4, !tbaa !37
  store i32 %2, ptr %4, align 4, !tbaa !42
  br label %15

15:                                               ; preds = %._crit_edge, %8
  %16 = phi i32 [ %.pre8, %._crit_edge ], [ 1, %8 ]
  %17 = phi i64 [ %7, %._crit_edge ], [ 0, %8 ]
  %18 = getelementptr inbounds nuw i8, ptr %0, i64 56
  %19 = load ptr, ptr %18, align 8, !tbaa !6
  %20 = getelementptr inbounds nuw i8, ptr %19, i64 8
  %21 = load ptr, ptr %20, align 8, !tbaa !35
  %22 = getelementptr inbounds nuw i8, ptr %0, i64 76
  %23 = getelementptr inbounds i8, ptr %21, i64 %17
  %24 = getelementptr inbounds nuw i8, ptr %0, i64 72
  %25 = tail call i32 @ssl3_write_bytes(ptr noundef nonnull %0, i32 noundef 20, ptr noundef %23, i32 noundef %16) #7
  %26 = icmp slt i32 %25, 0
  br i1 %26, label %ssl3_do_write.exit, label %27

27:                                               ; preds = %15
  %28 = load i32, ptr %24, align 8, !tbaa !38
  %29 = icmp eq i32 %25, %28
  br i1 %29, label %30, label %43

30:                                               ; preds = %27
  %31 = getelementptr inbounds nuw i8, ptr %0, i64 96
  %32 = load ptr, ptr %31, align 8, !tbaa !39
  %.not.i = icmp eq ptr %32, null
  br i1 %.not.i, label %ssl3_do_write.exit, label %33

33:                                               ; preds = %30
  %34 = load i32, ptr %0, align 8, !tbaa !40
  %35 = load ptr, ptr %18, align 8, !tbaa !6
  %36 = getelementptr inbounds nuw i8, ptr %35, i64 8
  %37 = load ptr, ptr %36, align 8, !tbaa !35
  %38 = load i32, ptr %22, align 4, !tbaa !37
  %39 = add nsw i32 %38, %25
  %40 = sext i32 %39 to i64
  %41 = getelementptr inbounds nuw i8, ptr %0, i64 104
  %42 = load ptr, ptr %41, align 8, !tbaa !41
  tail call void %32(i32 noundef 1, i32 noundef %34, i32 noundef 20, ptr noundef %37, i64 noundef %40, ptr noundef nonnull %0, ptr noundef %42) #7
  br label %ssl3_do_write.exit

43:                                               ; preds = %27
  %44 = load i32, ptr %22, align 4, !tbaa !37
  %45 = add nsw i32 %44, %25
  store i32 %45, ptr %22, align 4, !tbaa !37
  %46 = sub nsw i32 %28, %25
  store i32 %46, ptr %24, align 8, !tbaa !38
  br label %ssl3_do_write.exit

ssl3_do_write.exit:                               ; preds = %15, %30, %33, %43
  %.0.i = phi i32 [ 0, %43 ], [ -1, %15 ], [ 1, %33 ], [ 1, %30 ]
  ret i32 %.0.i
}